; Function Attrs: mustprogress nofree norecurse nounwind willreturn uwtable
define noundef zeroext i1 @_ZN5boost3log11v2_mt_posix4core19set_logging_enabledEb(ptr nocapture noundef nonnull readonly align 8 dereferenceable(8) %0, i1 noundef zeroext %1) local_unnamed_addr #9 align 2 {
_ZN5boost7atomics6detail26core_operations_gcc_atomicILm1ELb0ELb0EE8exchangeERVhhNS_12memory_orderE.exit:
  %2 = load ptr, ptr %0, align 8, !tbaa !33
  %3 = getelementptr inbounds nuw i8, ptr %2, i64 112
  %4 = zext i1 %1 to i8
  %5 = atomicrmw volatile xchg ptr %3, i8 %4 monotonic, align 1
  %6 = icmp ne i8 %5, 0
  ret i1 %6
}